target datalayout = "e-m:e-p270:32:32-p271:32:32-p272:64:64-i64:64-i128:128-f80:128-n8:16:32:64-S128"
target triple = "x86_64-pc-linux-gnu"

%struct.expert_field = type { i32, i32 }

@hf_ndps_item_count = internal global i32 0, align 4
@hf_ndps_attribute_value = internal global i32 0, align 4
@ett_ndps = internal global i32 0, align 4
@ei_ndps_truncated = internal global %struct.expert_field zeroinitializer, align 4
@.str.3571 = private unnamed_addr constant [12 x i8] c"Cardinal %u\00", align 1

; Function Attrs: nounwind uwtable
define internal i32 @cardinal_seq(ptr noundef %0, ptr noundef %1, ptr noundef %2, i32 noundef %3) #0 {
  %5 = alloca ptr, align 8
  %6 = alloca ptr, align 8
  %7 = alloca ptr, align 8
  %8 = alloca i32, align 4
  %9 = alloca i32, align 4
  %10 = alloca i32, align 4
  %11 = alloca i32, align 4
  %12 = alloca ptr, align 8
  %13 = alloca ptr, align 8
  %14 = alloca ptr, align 8
  store ptr %0, ptr %5, align 8
  store ptr %1, ptr %6, align 8
  store ptr %2, ptr %7, align 8
  store i32 %3, ptr %8, align 4
  %15 = load ptr, ptr %5, align 8
  %16 = load i32, ptr %8, align 4
  %17 = call i32 @tvb_get_ntohl(ptr noundef %15, i32 noundef %16)
  store i32 %17, ptr %9, align 4
  %18 = load ptr, ptr %7, align 8
  %19 = load i32, ptr @hf_ndps_item_count, align 4
  %20 = load ptr, ptr %5, align 8
  %21 = load i32, ptr %8, align 4
  %22 = load i32, ptr %9, align 4
  %23 = call ptr @proto_tree_add_uint(ptr noundef %18, i32 noundef %19, ptr noundef %20, i32 noundef %21, i32 noundef 4, i32 noundef %22)
  store ptr %23, ptr %14, align 8
  %24 = load i32, ptr %8, align 4
  %25 = add i32 %24, 4
  store i32 %25, ptr %8, align 4
  store i32 0, ptr %11, align 4
  br label %26

26:                                               ; preds = %76, %4
  %27 = load i32, ptr %11, align 4
  %28 = load i32, ptr %9, align 4
  %29 = icmp ult i32 %27, %28
  br i1 %29, label %30, label %79

30:                                               ; preds = %26
  %31 = load i32, ptr %11, align 4
  %32 = icmp uge i32 %31, 100
  br i1 %32, label %33, label %37

33:                                               ; preds = %30
  %34 = load ptr, ptr %6, align 8
  %35 = load ptr, ptr %14, align 8
  %36 = call ptr @expert_add_info(ptr noundef %34, ptr noundef %35, ptr noundef @ei_ndps_truncated)
  br label %79

37:                                               ; preds = %30
  %38 = load ptr, ptr %7, align 8
  %39 = load ptr, ptr %5, align 8
  %40 = load i32, ptr %8, align 4
  %41 = load i32, ptr @ett_ndps, align 4
  %42 = load i32, ptr %11, align 4
  %43 = add i32 %42, 1
  %44 = call ptr (ptr, ptr, i32, i32, i32, ptr, ptr, ...) @proto_tree_add_subtree_format(ptr noundef %38, ptr noundef %39, i32 noundef %40, i32 noundef -1, i32 noundef %41, ptr noundef %13, ptr noundef @.str.3571, i32 noundef %43)
  store ptr %44, ptr %12, align 8
  %45 = load ptr, ptr %5, align 8
  %46 = load i32, ptr %8, align 4
  %47 = call i32 @tvb_get_ntohl(ptr noundef %45, i32 noundef %46)
  store i32 %47, ptr %10, align 4
  %48 = load i32, ptr %8, align 4
  %49 = add i32 %48, 4
  store i32 %49, ptr %8, align 4
  %50 = load i32, ptr %10, align 4
  %51 = icmp eq i32 %50, 4
  br i1 %51, label %52, label %59

52:                                               ; preds = %37
  %53 = load ptr, ptr %12, align 8
  %54 = load i32, ptr @hf_ndps_attribute_value, align 4
  %55 = load ptr, ptr %5, align 8
  %56 = load i32, ptr %8, align 4
  %57 = load i32, ptr %10, align 4
  %58 = call ptr @proto_tree_add_item(ptr noundef %53, i32 noundef %54, ptr noundef %55, i32 noundef %56, i32 noundef %57, i32 noundef 0)
  br label %59

59:                                               ; preds = %52, %37
  %60 = load ptr, ptr %5, align 8
  %61 = load i32, ptr %8, align 4
  %62 = load i32, ptr %10, align 4
  %63 = load i32, ptr %10, align 4
  %64 = urem i32 %63, 2
  %65 = add i32 %62, %64
  call void @tvb_ensure_bytes_exist(ptr noundef %60, i32 noundef %61, i32 noundef %65)
  %66 = load i32, ptr %10, align 4
  %67 = load i32, ptr %8, align 4
  %68 = add i32 %67, %66
  store i32 %68, ptr %8, align 4
  %69 = load i32, ptr %10, align 4
  %70 = urem i32 %69, 2
  %71 = load i32, ptr %8, align 4
  %72 = add i32 %71, %70
  store i32 %72, ptr %8, align 4
  %73 = load ptr, ptr %13, align 8
  %74 = load ptr, ptr %5, align 8
  %75 = load i32, ptr %8, align 4
  call void @proto_item_set_end(ptr noundef %73, ptr noundef %74, i32 noundef %75)
  br label %76

76:                                               ; preds = %59
  %77 = load i32, ptr %11, align 4
  %78 = add i32 %77, 1
  store i32 %78, ptr %11, align 4
  br label %26, !llvm.loop !113

79:                                               ; preds = %33, %26
  %80 = load i32, ptr %8, align 4
  ret i32 %80
}