; Function Attrs: nounwind uwtable
define internal fastcc noundef i32 @cardinal_seq(ptr noundef %0, ptr noundef %1, ptr noundef %2, i32 noundef %3) unnamed_addr #0 {
  %5 = alloca ptr, align 8
  %6 = tail call i32 @tvb_get_ntohl(ptr noundef %0, i32 noundef %3) #6
  %7 = load i32, ptr @hf_ndps_item_count, align 4
  %8 = tail call ptr @proto_tree_add_uint(ptr noundef %2, i32 noundef %7, ptr noundef %0, i32 noundef %3, i32 noundef 4, i32 noundef %6) #6
  %9 = add i32 %3, 4
  %.not = icmp eq i32 %6, 0
  br i1 %.not, label %.loopexit, label %.lr.ph

.lr.ph:                                           ; preds = %4, %22
  %.040 = phi i32 [ %26, %22 ], [ %9, %4 ]
  %.03539 = phi i32 [ %14, %22 ], [ 0, %4 ]
  %exitcond = icmp eq i32 %.03539, 100
  br i1 %exitcond, label %10, label %12

10:                                               ; preds = %.lr.ph
  %11 = call ptr @expert_add_info(ptr noundef %1, ptr noundef %8, ptr noundef nonnull @ei_ndps_truncated) #6
  br label %.loopexit

12:                                               ; preds = %.lr.ph
  %13 = load i32, ptr @ett_ndps, align 4
  %14 = add nuw nsw i32 %.03539, 1
  %15 = call ptr (ptr, ptr, i32, i32, i32, ptr, ptr, ...) @proto_tree_add_subtree_format(ptr noundef %2, ptr noundef %0, i32 noundef %.040, i32 noundef -1, i32 noundef %13, ptr noundef nonnull %5, ptr noundef nonnull @.str.3571, i32 noundef %14) #6
  %16 = call i32 @tvb_get_ntohl(ptr noundef %0, i32 noundef %.040) #6
  %17 = add i32 %.040, 4
  %18 = icmp eq i32 %16, 4
  br i1 %18, label %19, label %22

19:                                               ; preds = %12
  %20 = load i32, ptr @hf_ndps_attribute_value, align 4
  %21 = call ptr @proto_tree_add_item(ptr noundef %15, i32 noundef %20, ptr noundef %0, i32 noundef %17, i32 noundef 4, i32 noundef 0) #6
  br label %22

22:                                               ; preds = %19, %12
  %23 = and i32 %16, 1
  %24 = add i32 %23, %16
  call void @tvb_ensure_bytes_exist(ptr noundef %0, i32 noundef %17, i32 noundef %24) #6
  %25 = add i32 %16, %17
  %26 = add i32 %25, %23
  %27 = load ptr, ptr %5, align 8
  call void @proto_item_set_end(ptr noundef %27, ptr noundef %0, i32 noundef %26) #6
  %exitcond42.not = icmp eq i32 %14, %6
  br i1 %exitcond42.not, label %.loopexit, label %.lr.ph, !llvm.loop !113

.loopexit:                                        ; preds = %22, %4, %10
  %.038 = phi i32 [ %.040, %10 ], [ %9, %4 ], [ %26, %22 ]
  ret i32 %.038
}